; Function Attrs: mustprogress nofree nounwind memory(readwrite, inaccessiblemem: none) uwtable
define hidden noundef zeroext i1 @_ZN6Assimp11X3DImporter24FindNodeElement_FromNodeEP18X3DNodeElementBaseRKNSt7__cxx1112basic_stringIcSt11char_traitsIcESaIcEEE11X3DElemTypePS2_(ptr noundef nonnull readnone align 8 captures(none) dereferenceable(120) %0, ptr noundef %1, ptr noundef nonnull readonly align 8 captures(none) dereferenceable(32) %2, i32 noundef %3, ptr noundef captures(address_is_null) %4) local_unnamed_addr #18 align 2 personality ptr @__gxx_personality_v0 {
  %6 = getelementptr inbounds nuw i8, ptr %1, i64 72
  %7 = load i32, ptr %6, align 8
  %8 = icmp eq i32 %7, %3
  br i1 %8, label %9, label %_ZSteqIcEN9__gnu_cxx11__enable_ifIXsr9__is_charIT_EE7__valueEbE6__typeERKNSt7__cxx1112basic_stringIS2_St11char_traitsIS2_ESaIS2_EEESC_.exit.thread18

9:                                                ; preds = %5
  %10 = getelementptr inbounds nuw i8, ptr %1, i64 16
  %11 = getelementptr inbounds nuw i8, ptr %1, i64 24
  %12 = load i64, ptr %11, align 8
  %13 = getelementptr inbounds nuw i8, ptr %2, i64 8
  %14 = load i64, ptr %13, align 8
  %15 = icmp eq i64 %12, %14
  br i1 %15, label %16, label %_ZSteqIcEN9__gnu_cxx11__enable_ifIXsr9__is_charIT_EE7__valueEbE6__typeERKNSt7__cxx1112basic_stringIS2_St11char_traitsIS2_ESaIS2_EEESC_.exit.thread18

16:                                               ; preds = %9
  %17 = icmp eq i64 %12, 0
  br i1 %17, label %_ZSteqIcEN9__gnu_cxx11__enable_ifIXsr9__is_charIT_EE7__valueEbE6__typeERKNSt7__cxx1112basic_stringIS2_St11char_traitsIS2_ESaIS2_EEESC_.exit.thread, label %_ZSteqIcEN9__gnu_cxx11__enable_ifIXsr9__is_charIT_EE7__valueEbE6__typeERKNSt7__cxx1112basic_stringIS2_St11char_traitsIS2_ESaIS2_EEESC_.exit

_ZSteqIcEN9__gnu_cxx11__enable_ifIXsr9__is_charIT_EE7__valueEbE6__typeERKNSt7__cxx1112basic_stringIS2_St11char_traitsIS2_ESaIS2_EEESC_.exit: ; preds = %16
  %18 = load ptr, ptr %2, align 8
  %19 = load ptr, ptr %10, align 8
  %bcmp.i = tail call i32 @bcmp(ptr %19, ptr %18, i64 %12)
  %20 = icmp eq i32 %bcmp.i, 0
  br i1 %20, label %_ZSteqIcEN9__gnu_cxx11__enable_ifIXsr9__is_charIT_EE7__valueEbE6__typeERKNSt7__cxx1112basic_stringIS2_St11char_traitsIS2_ESaIS2_EEESC_.exit.thread, label %_ZSteqIcEN9__gnu_cxx11__enable_ifIXsr9__is_charIT_EE7__valueEbE6__typeERKNSt7__cxx1112basic_stringIS2_St11char_traitsIS2_ESaIS2_EEESC_.exit.thread18

_ZSteqIcEN9__gnu_cxx11__enable_ifIXsr9__is_charIT_EE7__valueEbE6__typeERKNSt7__cxx1112basic_stringIS2_St11char_traitsIS2_ESaIS2_EEESC_.exit.thread: ; preds = %16, %_ZSteqIcEN9__gnu_cxx11__enable_ifIXsr9__is_charIT_EE7__valueEbE6__typeERKNSt7__cxx1112basic_stringIS2_St11char_traitsIS2_ESaIS2_EEESC_.exit
  %.not = icmp eq ptr %4, null
  br i1 %.not, label %.loopexit, label %21

21:                                               ; preds = %_ZSteqIcEN9__gnu_cxx11__enable_ifIXsr9__is_charIT_EE7__valueEbE6__typeERKNSt7__cxx1112basic_stringIS2_St11char_traitsIS2_ESaIS2_EEESC_.exit.thread
  store ptr %1, ptr %4, align 8
  br label %.loopexit

_ZSteqIcEN9__gnu_cxx11__enable_ifIXsr9__is_charIT_EE7__valueEbE6__typeERKNSt7__cxx1112basic_stringIS2_St11char_traitsIS2_ESaIS2_EEESC_.exit.thread18: ; preds = %9, %_ZSteqIcEN9__gnu_cxx11__enable_ifIXsr9__is_charIT_EE7__valueEbE6__typeERKNSt7__cxx1112basic_stringIS2_St11char_traitsIS2_ESaIS2_EEESC_.exit, %5
  %22 = getelementptr inbounds nuw i8, ptr %1, i64 48
  br label %23

23:                                               ; preds = %24, %_ZSteqIcEN9__gnu_cxx11__enable_ifIXsr9__is_charIT_EE7__valueEbE6__typeERKNSt7__cxx1112basic_stringIS2_St11char_traitsIS2_ESaIS2_EEESC_.exit.thread18
  %.sroa.015.0.in = phi ptr [ %22, %_ZSteqIcEN9__gnu_cxx11__enable_ifIXsr9__is_charIT_EE7__valueEbE6__typeERKNSt7__cxx1112basic_stringIS2_St11char_traitsIS2_ESaIS2_EEESC_.exit.thread18 ], [ %.sroa.015.0, %24 ]
  %.sroa.015.0 = load ptr, ptr %.sroa.015.0.in, align 8
  %.not19.not.not = icmp ne ptr %.sroa.015.0, %22
  br i1 %.not19.not.not, label %24, label %.loopexit

24:                                               ; preds = %23
  %25 = getelementptr inbounds nuw i8, ptr %.sroa.015.0, i64 16
  %26 = load ptr, ptr %25, align 8
  %27 = tail call noundef zeroext i1 @_ZN6Assimp11X3DImporter24FindNodeElement_FromNodeEP18X3DNodeElementBaseRKNSt7__cxx1112basic_stringIcSt11char_traitsIcESaIcEEE11X3DElemTypePS2_(ptr noundef nonnull align 8 dereferenceable(120) %0, ptr noundef %26, ptr noundef nonnull align 8 dereferenceable(32) %2, i32 noundef %3, ptr noundef %4)
  br i1 %27, label %.loopexit, label %23, !llvm.loop !58

.loopexit:                                        ; preds = %23, %24, %_ZSteqIcEN9__gnu_cxx11__enable_ifIXsr9__is_charIT_EE7__valueEbE6__typeERKNSt7__cxx1112basic_stringIS2_St11char_traitsIS2_ESaIS2_EEESC_.exit.thread, %21
  %.0 = phi i1 [ true, %21 ], [ true, %_ZSteqIcEN9__gnu_cxx11__enable_ifIXsr9__is_charIT_EE7__valueEbE6__typeERKNSt7__cxx1112basic_stringIS2_St11char_traitsIS2_ESaIS2_EEESC_.exit.thread ], [ %.not19.not.not, %24 ], [ %.not19.not.not, %23 ]
  ret i1 %.0
}